target datalayout = "e-m:e-p270:32:32-p271:32:32-p272:64:64-i64:64-i128:128-f80:128-n8:16:32:64-S128"
target triple = "x86_64-pc-linux-gnu"

%struct.SDL_HIDAPI_RumbleContext = type { %struct.SDL_AtomicInt, %struct.SDL_AtomicInt, ptr, ptr, ptr, ptr }
%struct.SDL_AtomicInt = type { i32 }
%struct.SDL_HIDAPI_RumbleRequest = type { ptr, [128 x i8], i32, ptr, ptr, ptr }
%struct.SDL_HIDAPI_Device = type { ptr, ptr, ptr, ptr, i16, i16, i16, ptr, %struct.SDL_GUID, i32, i32, i32, i32, i16, i16, i8, i32, i32, i32, ptr, ptr, ptr, ptr, %struct.SDL_AtomicInt, i32, ptr, i8, i8, i8, ptr, i32, ptr, ptr }
%struct.SDL_GUID = type { [16 x i8] }

@SDL_HIDAPI_rumble_lock = internal global ptr null, align 8

; Function Attrs: nounwind uwtable
define internal i32 @SDL_HIDAPI_RumbleThread(ptr noundef %0) #0 {
  %2 = alloca ptr, align 8
  %3 = alloca ptr, align 8
  %4 = alloca ptr, align 8
  store ptr %0, ptr %2, align 8
  call void @llvm.lifetime.start.p0(i64 8, ptr %3) #5
  %5 = load ptr, ptr %2, align 8
  store ptr %5, ptr %3, align 8
  %6 = call zeroext i1 @SDL_SetCurrentThreadPriority_REAL(i32 noundef 2)
  br label %7

7:                                                ; preds = %91, %1
  %8 = load ptr, ptr %3, align 8
  %9 = getelementptr inbounds nuw %struct.SDL_HIDAPI_RumbleContext, ptr %8, i32 0, i32 1
  %10 = call i32 @SDL_GetAtomicInt_REAL(ptr noundef %9)
  %11 = icmp ne i32 %10, 0
  br i1 %11, label %12, label %92

12:                                               ; preds = %7
  call void @llvm.lifetime.start.p0(i64 8, ptr %4) #5
  store ptr null, ptr %4, align 8
  %13 = load ptr, ptr %3, align 8
  %14 = getelementptr inbounds nuw %struct.SDL_HIDAPI_RumbleContext, ptr %13, i32 0, i32 3
  %15 = load ptr, ptr %14, align 8
  call void @SDL_WaitSemaphore_REAL(ptr noundef %15)
  %16 = load ptr, ptr @SDL_HIDAPI_rumble_lock, align 8
  call void @SDL_LockMutex_REAL(ptr noundef %16)
  %17 = load ptr, ptr %3, align 8
  %18 = getelementptr inbounds nuw %struct.SDL_HIDAPI_RumbleContext, ptr %17, i32 0, i32 5
  %19 = load ptr, ptr %18, align 8
  store ptr %19, ptr %4, align 8
  %20 = load ptr, ptr %4, align 8
  %21 = icmp ne ptr %20, null
  br i1 %21, label %22, label %37

22:                                               ; preds = %12
  %23 = load ptr, ptr %4, align 8
  %24 = load ptr, ptr %3, align 8
  %25 = getelementptr inbounds nuw %struct.SDL_HIDAPI_RumbleContext, ptr %24, i32 0, i32 4
  %26 = load ptr, ptr %25, align 8
  %27 = icmp eq ptr %23, %26
  br i1 %27, label %28, label %31

28:                                               ; preds = %22
  %29 = load ptr, ptr %3, align 8
  %30 = getelementptr inbounds nuw %struct.SDL_HIDAPI_RumbleContext, ptr %29, i32 0, i32 4
  store ptr null, ptr %30, align 8
  br label %31

31:                                               ; preds = %28, %22
  %32 = load ptr, ptr %4, align 8
  %33 = getelementptr inbounds nuw %struct.SDL_HIDAPI_RumbleRequest, ptr %32, i32 0, i32 5
  %34 = load ptr, ptr %33, align 8
  %35 = load ptr, ptr %3, align 8
  %36 = getelementptr inbounds nuw %struct.SDL_HIDAPI_RumbleContext, ptr %35, i32 0, i32 5
  store ptr %34, ptr %36, align 8
  br label %37

37:                                               ; preds = %31, %12
  %38 = load ptr, ptr @SDL_HIDAPI_rumble_lock, align 8
  call void @SDL_UnlockMutex_REAL(ptr noundef %38)
  %39 = load ptr, ptr %4, align 8
  %40 = icmp ne ptr %39, null
  br i1 %40, label %41, label %91

41:                                               ; preds = %37
  %42 = load ptr, ptr %4, align 8
  %43 = getelementptr inbounds nuw %struct.SDL_HIDAPI_RumbleRequest, ptr %42, i32 0, i32 0
  %44 = load ptr, ptr %43, align 8
  %45 = getelementptr inbounds nuw %struct.SDL_HIDAPI_Device, ptr %44, i32 0, i32 21
  %46 = load ptr, ptr %45, align 8
  call void @SDL_LockMutex_REAL(ptr noundef %46)
  %47 = load ptr, ptr %4, align 8
  %48 = getelementptr inbounds nuw %struct.SDL_HIDAPI_RumbleRequest, ptr %47, i32 0, i32 0
  %49 = load ptr, ptr %48, align 8
  %50 = getelementptr inbounds nuw %struct.SDL_HIDAPI_Device, ptr %49, i32 0, i32 22
  %51 = load ptr, ptr %50, align 8
  %52 = icmp ne ptr %51, null
  br i1 %52, label %53, label %67

53:                                               ; preds = %41
  %54 = load ptr, ptr %4, align 8
  %55 = getelementptr inbounds nuw %struct.SDL_HIDAPI_RumbleRequest, ptr %54, i32 0, i32 0
  %56 = load ptr, ptr %55, align 8
  %57 = getelementptr inbounds nuw %struct.SDL_HIDAPI_Device, ptr %56, i32 0, i32 22
  %58 = load ptr, ptr %57, align 8
  %59 = load ptr, ptr %4, align 8
  %60 = getelementptr inbounds nuw %struct.SDL_HIDAPI_RumbleRequest, ptr %59, i32 0, i32 1
  %61 = getelementptr inbounds [128 x i8], ptr %60, i64 0, i64 0
  %62 = load ptr, ptr %4, align 8
  %63 = getelementptr inbounds nuw %struct.SDL_HIDAPI_RumbleRequest, ptr %62, i32 0, i32 2
  %64 = load i32, ptr %63, align 8
  %65 = sext i32 %64 to i64
  %66 = call i32 @SDL_hid_write_REAL(ptr noundef %58, ptr noundef %61, i64 noundef %65)
  br label %67

67:                                               ; preds = %53, %41
  %68 = load ptr, ptr %4, align 8
  %69 = getelementptr inbounds nuw %struct.SDL_HIDAPI_RumbleRequest, ptr %68, i32 0, i32 0
  %70 = load ptr, ptr %69, align 8
  %71 = getelementptr inbounds nuw %struct.SDL_HIDAPI_Device, ptr %70, i32 0, i32 21
  %72 = load ptr, ptr %71, align 8
  call void @SDL_UnlockMutex_REAL(ptr noundef %72)
  %73 = load ptr, ptr %4, align 8
  %74 = getelementptr inbounds nuw %struct.SDL_HIDAPI_RumbleRequest, ptr %73, i32 0, i32 3
  %75 = load ptr, ptr %74, align 8
  %76 = icmp ne ptr %75, null
  br i1 %76, label %77, label %84

77:                                               ; preds = %67
  %78 = load ptr, ptr %4, align 8
  %79 = getelementptr inbounds nuw %struct.SDL_HIDAPI_RumbleRequest, ptr %78, i32 0, i32 3
  %80 = load ptr, ptr %79, align 8
  %81 = load ptr, ptr %4, align 8
  %82 = getelementptr inbounds nuw %struct.SDL_HIDAPI_RumbleRequest, ptr %81, i32 0, i32 4
  %83 = load ptr, ptr %82, align 8
  call void %80(ptr noundef %83)
  br label %84

84:                                               ; preds = %77, %67
  %85 = load ptr, ptr %4, align 8
  %86 = getelementptr inbounds nuw %struct.SDL_HIDAPI_RumbleRequest, ptr %85, i32 0, i32 0
  %87 = load ptr, ptr %86, align 8
  %88 = getelementptr inbounds nuw %struct.SDL_HIDAPI_Device, ptr %87, i32 0, i32 23
  %89 = call i32 @SDL_AddAtomicInt_REAL(ptr noundef %88, i32 noundef -1)
  %90 = load ptr, ptr %4, align 8
  call void @SDL_free_REAL(ptr noundef %90)
  call void @SDL_Delay_REAL(i32 noundef 10)
  br label %91

91:                                               ; preds = %84, %37
  call void @llvm.lifetime.end.p0(i64 8, ptr %4) #5
  br label %7, !llvm.loop !6

92:                                               ; preds = %7
  call void @llvm.lifetime.end.p0(i64 8, ptr %3) #5
  ret i32 0
}