; Function Attrs: nounwind uwtable
define internal noundef i32 @SDL_HIDAPI_RumbleThread(ptr noundef %0) #0 {
  %2 = tail call zeroext i1 @SDL_SetCurrentThreadPriority_REAL(i32 noundef 2) #6
  %3 = getelementptr inbounds nuw i8, ptr %0, i64 4
  %4 = tail call i32 @SDL_GetAtomicInt_REAL(ptr noundef nonnull %3) #6
  %.not27 = icmp eq i32 %4, 0
  br i1 %.not27, label %._crit_edge, label %.lr.ph

.lr.ph:                                           ; preds = %1
  %5 = getelementptr inbounds nuw i8, ptr %0, i64 16
  %6 = getelementptr inbounds nuw i8, ptr %0, i64 32
  %7 = getelementptr inbounds nuw i8, ptr %0, i64 24
  br label %8

8:                                                ; preds = %.lr.ph, %46
  %9 = load ptr, ptr %5, align 8
  tail call void @SDL_WaitSemaphore_REAL(ptr noundef %9) #6
  %10 = load ptr, ptr @SDL_HIDAPI_rumble_lock, align 8
  tail call void @SDL_LockMutex_REAL(ptr noundef %10) #6
  %11 = load ptr, ptr %6, align 8
  %.not24 = icmp eq ptr %11, null
  br i1 %.not24, label %.critedge, label %12

12:                                               ; preds = %8
  %13 = load ptr, ptr %7, align 8
  %14 = icmp eq ptr %11, %13
  br i1 %14, label %15, label %16

15:                                               ; preds = %12
  store ptr null, ptr %7, align 8
  br label %16

16:                                               ; preds = %12, %15
  %17 = getelementptr inbounds nuw i8, ptr %11, i64 160
  %18 = load ptr, ptr %17, align 8
  store ptr %18, ptr %6, align 8
  %19 = load ptr, ptr @SDL_HIDAPI_rumble_lock, align 8
  tail call void @SDL_UnlockMutex_REAL(ptr noundef %19) #6
  %20 = load ptr, ptr %11, align 8
  %21 = getelementptr inbounds nuw i8, ptr %20, i64 120
  %22 = load ptr, ptr %21, align 8
  tail call void @SDL_LockMutex_REAL(ptr noundef %22) #6
  %23 = load ptr, ptr %11, align 8
  %24 = getelementptr inbounds nuw i8, ptr %23, i64 128
  %25 = load ptr, ptr %24, align 8
  %.not25 = icmp eq ptr %25, null
  br i1 %.not25, label %32, label %26

26:                                               ; preds = %16
  %27 = getelementptr inbounds nuw i8, ptr %11, i64 8
  %28 = getelementptr inbounds nuw i8, ptr %11, i64 136
  %29 = load i32, ptr %28, align 8
  %30 = sext i32 %29 to i64
  %31 = tail call i32 @SDL_hid_write_REAL(ptr noundef nonnull %25, ptr noundef nonnull %27, i64 noundef %30) #6
  %.pre = load ptr, ptr %11, align 8
  br label %32

32:                                               ; preds = %26, %16
  %33 = phi ptr [ %.pre, %26 ], [ %23, %16 ]
  %34 = getelementptr inbounds nuw i8, ptr %33, i64 120
  %35 = load ptr, ptr %34, align 8
  tail call void @SDL_UnlockMutex_REAL(ptr noundef %35) #6
  %36 = getelementptr inbounds nuw i8, ptr %11, i64 144
  %37 = load ptr, ptr %36, align 8
  %.not26 = icmp eq ptr %37, null
  br i1 %.not26, label %41, label %38

38:                                               ; preds = %32
  %39 = getelementptr inbounds nuw i8, ptr %11, i64 152
  %40 = load ptr, ptr %39, align 8
  tail call void %37(ptr noundef %40) #6
  br label %41

41:                                               ; preds = %38, %32
  %42 = load ptr, ptr %11, align 8
  %43 = getelementptr inbounds nuw i8, ptr %42, i64 136
  %44 = tail call i32 @SDL_AddAtomicInt_REAL(ptr noundef nonnull %43, i32 noundef -1) #6
  tail call void @SDL_free_REAL(ptr noundef nonnull %11) #6
  tail call void @SDL_Delay_REAL(i32 noundef 10) #6
  br label %46

.critedge:                                        ; preds = %8
  %45 = load ptr, ptr @SDL_HIDAPI_rumble_lock, align 8
  tail call void @SDL_UnlockMutex_REAL(ptr noundef %45) #6
  br label %46

46:                                               ; preds = %.critedge, %41
  %47 = tail call i32 @SDL_GetAtomicInt_REAL(ptr noundef nonnull %3) #6
  %.not = icmp eq i32 %47, 0
  br i1 %.not, label %._crit_edge, label %8, !llvm.loop !6

._crit_edge:                                      ; preds = %46, %1
  ret i32 0
}